target datalayout = "e-m:e-p270:32:32-p271:32:32-p272:64:64-i64:64-i128:128-f80:128-n8:16:32:64-S128"
target triple = "x86_64-pc-linux-gnu"

@.str.19 = private unnamed_addr constant [22 x i8] c"string slice too long\00", align 1

; Function Attrs: mustprogress nounwind uwtable
define internal noundef i32 @_ZL8posrelatim(i32 noundef %0, i64 noundef %1) #1 {
  %3 = alloca i32, align 4
  %4 = alloca i64, align 8
  store i32 %0, ptr %3, align 4, !tbaa !24
  store i64 %1, ptr %4, align 8, !tbaa !22
  %5 = load i32, ptr %3, align 4, !tbaa !24
  %6 = icmp slt i32 %5, 0
  br i1 %6, label %7, label %13

7:                                                ; preds = %2
  %8 = load i64, ptr %4, align 8, !tbaa !22
  %9 = trunc i64 %8 to i32
  %10 = add nsw i32 %9, 1
  %11 = load i32, ptr %3, align 4, !tbaa !24
  %12 = add nsw i32 %11, %10
  store i32 %12, ptr %3, align 4, !tbaa !24
  br label %13

13:                                               ; preds = %7, %2
  %14 = load i32, ptr %3, align 4, !tbaa !24
  %15 = icmp sge i32 %14, 0
  br i1 %15, label %16, label %18

16:                                               ; preds = %13
  %17 = load i32, ptr %3, align 4, !tbaa !24
  br label %19

18:                                               ; preds = %13
  br label %19

19:                                               ; preds = %18, %16
  %20 = phi i32 [ %17, %16 ], [ 0, %18 ]
  ret i32 %20
}

; Function Attrs: mustprogress uwtable
define internal noundef i32 @_ZL8str_byteP9lua_State(ptr noundef %0) #2 {
  %2 = alloca i32, align 4
  %3 = alloca ptr, align 8
  %4 = alloca i64, align 8
  %5 = alloca ptr, align 8
  %6 = alloca i32, align 4
  %7 = alloca i32, align 4
  %8 = alloca i32, align 4
  %9 = alloca i32, align 4
  %10 = alloca i32, align 4
  store ptr %0, ptr %3, align 8, !tbaa !20
  call void @llvm.lifetime.start.p0(i64 8, ptr %4) #13
  call void @llvm.lifetime.start.p0(i64 8, ptr %5) #13
  %11 = load ptr, ptr %3, align 8, !tbaa !20
  %12 = call noundef ptr @_Z17luaL_checklstringP9lua_StateiPm(ptr noundef %11, i32 noundef 1, ptr noundef %4)
  store ptr %12, ptr %5, align 8, !tbaa !9
  call void @llvm.lifetime.start.p0(i64 4, ptr %6) #13
  %13 = load ptr, ptr %3, align 8, !tbaa !20
  %14 = call noundef i32 @_Z15luaL_optintegerP9lua_Stateii(ptr noundef %13, i32 noundef 2, i32 noundef 1)
  %15 = load i64, ptr %4, align 8, !tbaa !22
  %16 = call noundef i32 @_ZL8posrelatim(i32 noundef %14, i64 noundef %15)
  store i32 %16, ptr %6, align 4, !tbaa !24
  call void @llvm.lifetime.start.p0(i64 4, ptr %7) #13
  %17 = load ptr, ptr %3, align 8, !tbaa !20
  %18 = load i32, ptr %6, align 4, !tbaa !24
  %19 = call noundef i32 @_Z15luaL_optintegerP9lua_Stateii(ptr noundef %17, i32 noundef 3, i32 noundef %18)
  %20 = load i64, ptr %4, align 8, !tbaa !22
  %21 = call noundef i32 @_ZL8posrelatim(i32 noundef %19, i64 noundef %20)
  store i32 %21, ptr %7, align 4, !tbaa !24
  call void @llvm.lifetime.start.p0(i64 4, ptr %8) #13
  call void @llvm.lifetime.start.p0(i64 4, ptr %9) #13
  %22 = load i32, ptr %6, align 4, !tbaa !24
  %23 = icmp sle i32 %22, 0
  br i1 %23, label %24, label %25

24:                                               ; preds = %1
  store i32 1, ptr %6, align 4, !tbaa !24
  br label %25

25:                                               ; preds = %24, %1
  %26 = load i32, ptr %7, align 4, !tbaa !24
  %27 = sext i32 %26 to i64
  %28 = load i64, ptr %4, align 8, !tbaa !22
  %29 = icmp ugt i64 %27, %28
  br i1 %29, label %30, label %33

30:                                               ; preds = %25
  %31 = load i64, ptr %4, align 8, !tbaa !22
  %32 = trunc i64 %31 to i32
  store i32 %32, ptr %7, align 4, !tbaa !24
  br label %33

33:                                               ; preds = %30, %25
  %34 = load i32, ptr %6, align 4, !tbaa !24
  %35 = load i32, ptr %7, align 4, !tbaa !24
  %36 = icmp sgt i32 %34, %35
  br i1 %36, label %37, label %38

37:                                               ; preds = %33
  store i32 0, ptr %2, align 4
  store i32 1, ptr %10, align 4
  br label %73

38:                                               ; preds = %33
  %39 = load i32, ptr %7, align 4, !tbaa !24
  %40 = load i32, ptr %6, align 4, !tbaa !24
  %41 = sub nsw i32 %39, %40
  %42 = add nsw i32 %41, 1
  store i32 %42, ptr %8, align 4, !tbaa !24
  %43 = load i32, ptr %6, align 4, !tbaa !24
  %44 = load i32, ptr %8, align 4, !tbaa !24
  %45 = add nsw i32 %43, %44
  %46 = load i32, ptr %7, align 4, !tbaa !24
  %47 = icmp sle i32 %45, %46
  br i1 %47, label %48, label %50

48:                                               ; preds = %38
  %49 = load ptr, ptr %3, align 8, !tbaa !20
  call void (ptr, ptr, ...) @_Z11luaL_errorLP9lua_StatePKcz(ptr noundef %49, ptr noundef @.str.19) #14
  unreachable

50:                                               ; preds = %38
  %51 = load ptr, ptr %3, align 8, !tbaa !20
  %52 = load i32, ptr %8, align 4, !tbaa !24
  call void @_Z15luaL_checkstackP9lua_StateiPKc(ptr noundef %51, i32 noundef %52, ptr noundef @.str.19)
  store i32 0, ptr %9, align 4, !tbaa !24
  br label %53

53:                                               ; preds = %68, %50
  %54 = load i32, ptr %9, align 4, !tbaa !24
  %55 = load i32, ptr %8, align 4, !tbaa !24
  %56 = icmp slt i32 %54, %55
  br i1 %56, label %57, label %71

57:                                               ; preds = %53
  %58 = load ptr, ptr %3, align 8, !tbaa !20
  %59 = load ptr, ptr %5, align 8, !tbaa !9
  %60 = load i32, ptr %6, align 4, !tbaa !24
  %61 = load i32, ptr %9, align 4, !tbaa !24
  %62 = add nsw i32 %60, %61
  %63 = sub nsw i32 %62, 1
  %64 = sext i32 %63 to i64
  %65 = getelementptr inbounds i8, ptr %59, i64 %64
  %66 = load i8, ptr %65, align 1, !tbaa !26
  %67 = zext i8 %66 to i32
  call void @_Z15lua_pushintegerP9lua_Statei(ptr noundef %58, i32 noundef %67)
  br label %68

68:                                               ; preds = %57
  %69 = load i32, ptr %9, align 4, !tbaa !24
  %70 = add nsw i32 %69, 1
  store i32 %70, ptr %9, align 4, !tbaa !24
  br label %53, !llvm.loop !27

71:                                               ; preds = %53
  %72 = load i32, ptr %8, align 4, !tbaa !24
  store i32 %72, ptr %2, align 4
  store i32 1, ptr %10, align 4
  br label %73

73:                                               ; preds = %71, %37
  call void @llvm.lifetime.end.p0(i64 4, ptr %9) #13
  call void @llvm.lifetime.end.p0(i64 4, ptr %8) #13
  call void @llvm.lifetime.end.p0(i64 4, ptr %7) #13
  call void @llvm.lifetime.end.p0(i64 4, ptr %6) #13
  call void @llvm.lifetime.end.p0(i64 8, ptr %5) #13
  call void @llvm.lifetime.end.p0(i64 8, ptr %4) #13
  %74 = load i32, ptr %2, align 4
  ret i32 %74
}