; Function Attrs: mustprogress uwtable
define internal noundef range(i32 0, -2147483648) i32 @_ZL8str_byteP9lua_State(ptr noundef %0) #0 {
  %2 = alloca i64, align 8
  call void @llvm.lifetime.start.p0(i64 8, ptr nonnull %2) #14
  %3 = call noundef ptr @_Z17luaL_checklstringP9lua_StateiPm(ptr noundef %0, i32 noundef 1, ptr noundef nonnull %2)
  %4 = call noundef i32 @_Z15luaL_optintegerP9lua_Stateii(ptr noundef %0, i32 noundef 2, i32 noundef 1)
  %5 = load i64, ptr %2, align 8, !tbaa !4
  %6 = icmp slt i32 %4, 0
  %7 = trunc i64 %5 to i32
  %8 = add nsw i32 %7, 1
  %9 = select i1 %6, i32 %8, i32 0
  %.0.i = add nsw i32 %9, %4
  %10 = call noundef range(i32 0, -2147483648) i32 @llvm.smax.i32(i32 %.0.i, i32 0)
  %11 = call noundef i32 @_Z15luaL_optintegerP9lua_Stateii(ptr noundef %0, i32 noundef 3, i32 noundef %10)
  %12 = load i64, ptr %2, align 8, !tbaa !4
  %13 = icmp slt i32 %11, 0
  %14 = trunc i64 %12 to i32
  %15 = add nsw i32 %14, 1
  %16 = select i1 %13, i32 %15, i32 0
  %.0.i28 = add nsw i32 %16, %11
  %17 = call noundef range(i32 0, -2147483648) i32 @llvm.smax.i32(i32 %.0.i28, i32 0)
  %18 = call i32 @llvm.smax.i32(i32 %.0.i, i32 1)
  %19 = zext nneg i32 %17 to i64
  %spec.select29 = call i64 @llvm.umin.i64(i64 %12, i64 %19)
  %spec.select = trunc nuw nsw i64 %spec.select29 to i32
  %20 = icmp samesign ugt i32 %18, %spec.select
  br i1 %20, label %.loopexit, label %21

21:                                               ; preds = %1
  %22 = sub nuw nsw i32 %spec.select, %18
  %23 = add nuw nsw i32 %22, 1
  %.not.not = icmp eq i64 %spec.select29, 2147483647
  br i1 %.not.not, label %24, label %25

24:                                               ; preds = %21
  call void (ptr, ptr, ...) @_Z11luaL_errorLP9lua_StatePKcz(ptr noundef %0, ptr noundef nonnull @.str.19) #15
  unreachable

25:                                               ; preds = %21
  call void @_Z15luaL_checkstackP9lua_StateiPKc(ptr noundef %0, i32 noundef %23, ptr noundef nonnull @.str.19)
  %invariant.gep = getelementptr i8, ptr %3, i64 -1
  %26 = zext nneg i32 %18 to i64
  %27 = add nuw i32 %spec.select, 1
  %28 = sub i32 %27, %18
  %wide.trip.count = zext i32 %28 to i64
  %invariant.gep33 = getelementptr i8, ptr %invariant.gep, i64 %26
  br label %29

29:                                               ; preds = %25, %29
  %indvars.iv = phi i64 [ 0, %25 ], [ %indvars.iv.next, %29 ]
  %gep34 = getelementptr i8, ptr %invariant.gep33, i64 %indvars.iv
  %30 = load i8, ptr %gep34, align 1, !tbaa !8
  %31 = zext i8 %30 to i32
  call void @_Z15lua_pushintegerP9lua_Statei(ptr noundef %0, i32 noundef %31)
  %indvars.iv.next = add nuw nsw i64 %indvars.iv, 1
  %exitcond.not = icmp eq i64 %indvars.iv.next, %wide.trip.count
  br i1 %exitcond.not, label %.loopexit, label %29, !llvm.loop !9

.loopexit:                                        ; preds = %29, %1
  %.024 = phi i32 [ 0, %1 ], [ %23, %29 ]
  call void @llvm.lifetime.end.p0(i64 8, ptr nonnull %2) #14
  ret i32 %.024
}